target datalayout = "e-m:e-p270:32:32-p271:32:32-p272:64:64-i64:64-i128:128-f80:128-n8:16:32:64-S128"
target triple = "x86_64-pc-linux-gnu"

%struct.UBiDi = type { ptr, ptr, i32, i32, i32, i32, i32, i32, i32, i32, i32, ptr, ptr, ptr, ptr, ptr, ptr, i8, i8, ptr, ptr, i8, i32, i32, i8, i8, i8, ptr, i32, ptr, i32, ptr, i32, i32, i32, i32, i32, ptr, [10 x %struct.Para], i32, ptr, [1 x %struct.Run], i32, ptr, [5 x %struct.Isolate], %struct.InsertPoints, i32, ptr, ptr }
%struct.Para = type { i32, i32 }
%struct.Run = type { i32, i32, i32 }
%struct.Isolate = type { i32, i32, i32, i16 }
%struct.InsertPoints = type { i32, i32, i32, i32, ptr }

; Function Attrs: inlinehint mustprogress nounwind uwtable
define internal noundef signext i8 @_ZL9U_FAILURE10UErrorCode(i32 noundef %0) #2 {
  %2 = alloca i32, align 4
  store i32 %0, ptr %2, align 4, !tbaa !3
  %3 = load i32, ptr %2, align 4, !tbaa !3
  %4 = icmp sgt i32 %3, 0
  %5 = zext i1 %4 to i8
  ret i8 %5
}

; Function Attrs: mustprogress uwtable
define void @ubidi_setClassCallback_77(ptr noundef %0, ptr noundef %1, ptr noundef %2, ptr noundef %3, ptr noundef %4, ptr noundef %5) #0 {
  %7 = alloca ptr, align 8
  %8 = alloca ptr, align 8
  %9 = alloca ptr, align 8
  %10 = alloca ptr, align 8
  %11 = alloca ptr, align 8
  %12 = alloca ptr, align 8
  store ptr %0, ptr %7, align 8, !tbaa !11
  store ptr %1, ptr %8, align 8, !tbaa !9
  store ptr %2, ptr %9, align 8, !tbaa !9
  store ptr %3, ptr %10, align 8, !tbaa !31
  store ptr %4, ptr %11, align 8, !tbaa !31
  store ptr %5, ptr %12, align 8, !tbaa !9
  br label %13

13:                                               ; preds = %6
  %14 = load ptr, ptr %12, align 8, !tbaa !9
  %15 = icmp eq ptr %14, null
  br i1 %15, label %21, label %16

16:                                               ; preds = %13
  %17 = load ptr, ptr %12, align 8, !tbaa !9
  %18 = load i32, ptr %17, align 4, !tbaa !3
  %19 = call noundef signext i8 @_ZL9U_FAILURE10UErrorCode(i32 noundef %18)
  %20 = icmp ne i8 %19, 0
  br i1 %20, label %21, label %22

21:                                               ; preds = %16, %13
  br label %51

22:                                               ; preds = %16
  br label %23

23:                                               ; preds = %22
  %24 = load ptr, ptr %7, align 8, !tbaa !11
  %25 = icmp eq ptr %24, null
  br i1 %25, label %26, label %28

26:                                               ; preds = %23
  %27 = load ptr, ptr %12, align 8, !tbaa !9
  store i32 1, ptr %27, align 4, !tbaa !3
  br label %51

28:                                               ; preds = %23
  %29 = load ptr, ptr %10, align 8, !tbaa !31
  %30 = icmp ne ptr %29, null
  br i1 %30, label %31, label %36

31:                                               ; preds = %28
  %32 = load ptr, ptr %7, align 8, !tbaa !11
  %33 = getelementptr inbounds nuw %struct.UBiDi, ptr %32, i32 0, i32 47
  %34 = load ptr, ptr %33, align 8, !tbaa !149
  %35 = load ptr, ptr %10, align 8, !tbaa !31
  store ptr %34, ptr %35, align 8, !tbaa !9
  br label %36

36:                                               ; preds = %31, %28
  %37 = load ptr, ptr %11, align 8, !tbaa !31
  %38 = icmp ne ptr %37, null
  br i1 %38, label %39, label %44

39:                                               ; preds = %36
  %40 = load ptr, ptr %7, align 8, !tbaa !11
  %41 = getelementptr inbounds nuw %struct.UBiDi, ptr %40, i32 0, i32 48
  %42 = load ptr, ptr %41, align 8, !tbaa !150
  %43 = load ptr, ptr %11, align 8, !tbaa !31
  store ptr %42, ptr %43, align 8, !tbaa !9
  br label %44

44:                                               ; preds = %39, %36
  %45 = load ptr, ptr %8, align 8, !tbaa !9
  %46 = load ptr, ptr %7, align 8, !tbaa !11
  %47 = getelementptr inbounds nuw %struct.UBiDi, ptr %46, i32 0, i32 47
  store ptr %45, ptr %47, align 8, !tbaa !149
  %48 = load ptr, ptr %9, align 8, !tbaa !9
  %49 = load ptr, ptr %7, align 8, !tbaa !11
  %50 = getelementptr inbounds nuw %struct.UBiDi, ptr %49, i32 0, i32 48
  store ptr %48, ptr %50, align 8, !tbaa !150
  br label %51

51:                                               ; preds = %44, %26, %21
  ret void
}