; Function Attrs: mustprogress nofree norecurse nosync nounwind willreturn memory(argmem: readwrite) uwtable
define void @ubidi_setClassCallback_77(ptr noundef %0, ptr noundef %1, ptr noundef %2, ptr noundef writeonly %3, ptr noundef writeonly %4, ptr noundef %5) local_unnamed_addr #12 {
  %7 = icmp eq ptr %5, null
  br i1 %7, label %25, label %8

8:                                                ; preds = %6
  %9 = load i32, ptr %5, align 4, !tbaa !23
  %10 = icmp slt i32 %9, 1
  br i1 %10, label %11, label %25

11:                                               ; preds = %8
  %12 = icmp eq ptr %0, null
  br i1 %12, label %13, label %14

13:                                               ; preds = %11
  store i32 1, ptr %5, align 4, !tbaa !23
  br label %25

14:                                               ; preds = %11
  %.not17 = icmp eq ptr %3, null
  br i1 %.not17, label %18, label %15

15:                                               ; preds = %14
  %16 = getelementptr inbounds nuw i8, ptr %0, i64 448
  %17 = load ptr, ptr %16, align 8, !tbaa !77
  store ptr %17, ptr %3, align 8, !tbaa !24
  br label %18

18:                                               ; preds = %15, %14
  %.not18 = icmp eq ptr %4, null
  br i1 %.not18, label %22, label %19

19:                                               ; preds = %18
  %20 = getelementptr inbounds nuw i8, ptr %0, i64 456
  %21 = load ptr, ptr %20, align 8, !tbaa !78
  store ptr %21, ptr %4, align 8, !tbaa !24
  br label %22

22:                                               ; preds = %19, %18
  %23 = getelementptr inbounds nuw i8, ptr %0, i64 448
  store ptr %1, ptr %23, align 8, !tbaa !77
  %24 = getelementptr inbounds nuw i8, ptr %0, i64 456
  store ptr %2, ptr %24, align 8, !tbaa !78
  br label %25

25:                                               ; preds = %6, %8, %22, %13
  ret void
}